###############################################################################
#                                                                             #
# IAR ELF Linker V6.40.1.53790/W32 for ARM              20/May/2019  20:30:06 #
# Copyright 2007-2012 IAR Systems AB.                                         #
#                                                                             #
#    Output file  =  C:\CAST\frimware2.7_phase\firmware\Bootloader\IAR\Releas #
#                    e-MainMemory-Beacon\Exe\BC-BootloaderUpgrade-Release.out #
#    Map file     =  C:\CAST\frimware2.7_phase\firmware\Bootloader\IAR\Releas #
#                    e-MainMemory-Beacon\List\BC-BootloaderUpgrade-Release.ma #
#                    p                                                        #
#    Command line =  C:\CAST\frimware2.7_phase\firmware\Bootloader\IAR\Releas #
#                    e-MainMemory-Beacon\Obj\app_util.o                       #
#                    C:\CAST\frimware2.7_phase\firmware\Bootloader\IAR\Releas #
#                    e-MainMemory-Beacon\Obj\base64.o                         #
#                    C:\CAST\frimware2.7_phase\firmware\Bootloader\IAR\Releas #
#                    e-MainMemory-Beacon\Obj\console_tail.o                   #
#                    C:\CAST\frimware2.7_phase\firmware\Bootloader\IAR\Releas #
#                    e-MainMemory-Beacon\Obj\hardware.o                       #
#                    C:\CAST\frimware2.7_phase\firmware\Bootloader\IAR\Releas #
#                    e-MainMemory-Beacon\Obj\i2c_ee.o                         #
#                    C:\CAST\frimware2.7_phase\firmware\Bootloader\IAR\Releas #
#                    e-MainMemory-Beacon\Obj\main.o                           #
#                    C:\CAST\frimware2.7_phase\firmware\Bootloader\IAR\Releas #
#                    e-MainMemory-Beacon\Obj\md5.o                            #
#                    C:\CAST\frimware2.7_phase\firmware\Bootloader\IAR\Releas #
#                    e-MainMemory-Beacon\Obj\misc.o                           #
#                    C:\CAST\frimware2.7_phase\firmware\Bootloader\IAR\Releas #
#                    e-MainMemory-Beacon\Obj\startup_stm32f10x_cl.o           #
#                    C:\CAST\frimware2.7_phase\firmware\Bootloader\IAR\Releas #
#                    e-MainMemory-Beacon\Obj\stm32f10x_adc.o                  #
#                    C:\CAST\frimware2.7_phase\firmware\Bootloader\IAR\Releas #
#                    e-MainMemory-Beacon\Obj\stm32f10x_dbgmcu.o               #
#                    C:\CAST\frimware2.7_phase\firmware\Bootloader\IAR\Releas #
#                    e-MainMemory-Beacon\Obj\stm32f10x_dma.o                  #
#                    C:\CAST\frimware2.7_phase\firmware\Bootloader\IAR\Releas #
#                    e-MainMemory-Beacon\Obj\stm32f10x_exti.o                 #
#                    C:\CAST\frimware2.7_phase\firmware\Bootloader\IAR\Releas #
#                    e-MainMemory-Beacon\Obj\stm32f10x_flash.o                #
#                    C:\CAST\frimware2.7_phase\firmware\Bootloader\IAR\Releas #
#                    e-MainMemory-Beacon\Obj\stm32f10x_gpio.o                 #
#                    C:\CAST\frimware2.7_phase\firmware\Bootloader\IAR\Releas #
#                    e-MainMemory-Beacon\Obj\stm32f10x_i2c.o                  #
#                    C:\CAST\frimware2.7_phase\firmware\Bootloader\IAR\Releas #
#                    e-MainMemory-Beacon\Obj\stm32f10x_it.o                   #
#                    C:\CAST\frimware2.7_phase\firmware\Bootloader\IAR\Releas #
#                    e-MainMemory-Beacon\Obj\stm32f10x_rcc.o                  #
#                    C:\CAST\frimware2.7_phase\firmware\Bootloader\IAR\Releas #
#                    e-MainMemory-Beacon\Obj\stm32f10x_spi.o                  #
#                    C:\CAST\frimware2.7_phase\firmware\Bootloader\IAR\Releas #
#                    e-MainMemory-Beacon\Obj\stm32f10x_tim.o                  #
#                    C:\CAST\frimware2.7_phase\firmware\Bootloader\IAR\Releas #
#                    e-MainMemory-Beacon\Obj\system_stm32f10x.o               #
#                    C:\CAST\frimware2.7_phase\firmware\Bootloader\IAR\Releas #
#                    e-MainMemory-Beacon\Obj\time.o                           #
#                    C:\CAST\frimware2.7_phase\firmware\Bootloader\IAR\Releas #
#                    e-MainMemory-Beacon\Obj\usb_bsp.o                        #
#                    C:\CAST\frimware2.7_phase\firmware\Bootloader\IAR\Releas #
#                    e-MainMemory-Beacon\Obj\usb_core.o                       #
#                    C:\CAST\frimware2.7_phase\firmware\Bootloader\IAR\Releas #
#                    e-MainMemory-Beacon\Obj\usb_dcd.o                        #
#                    C:\CAST\frimware2.7_phase\firmware\Bootloader\IAR\Releas #
#                    e-MainMemory-Beacon\Obj\usb_dcd_int.o                    #
#                    C:\CAST\frimware2.7_phase\firmware\Bootloader\IAR\Releas #
#                    e-MainMemory-Beacon\Obj\usbd_cdc_core.o                  #
#                    C:\CAST\frimware2.7_phase\firmware\Bootloader\IAR\Releas #
#                    e-MainMemory-Beacon\Obj\usbd_cdc_vcp.o                   #
#                    C:\CAST\frimware2.7_phase\firmware\Bootloader\IAR\Releas #
#                    e-MainMemory-Beacon\Obj\usbd_core.o                      #
#                    C:\CAST\frimware2.7_phase\firmware\Bootloader\IAR\Releas #
#                    e-MainMemory-Beacon\Obj\usbd_desc.o                      #
#                    C:\CAST\frimware2.7_phase\firmware\Bootloader\IAR\Releas #
#                    e-MainMemory-Beacon\Obj\usbd_ioreq.o                     #
#                    C:\CAST\frimware2.7_phase\firmware\Bootloader\IAR\Releas #
#                    e-MainMemory-Beacon\Obj\usbd_req.o                       #
#                    C:\CAST\frimware2.7_phase\firmware\Bootloader\IAR\Releas #
#                    e-MainMemory-Beacon\Obj\usbd_usr.o -o                    #
#                    C:\CAST\frimware2.7_phase\firmware\Bootloader\IAR\Releas #
#                    e-MainMemory-Beacon\Exe\BC-BootloaderUpgrade-Release.out #
#                     --redirect _Printf=_PrintfFull --redirect               #
#                    _Scanf=_ScanfFull --map C:\CAST\frimware2.7_phase\firmwa #
#                    re\Bootloader\IAR\Release-MainMemory-Beacon\List\BC-Boot #
#                    loaderUpgrade-Release.map --config                       #
#                    C:\CAST\frimware2.7_phase\firmware\Bootloader\IAR\stm32f #
#                    10x_flash_boot.icf --semihosting --entry                 #
#                    __iar_program_start --vfe                                #
#                                                                             #
#                                                                             #
###############################################################################

*******************************************************************************
*** RUNTIME MODEL ATTRIBUTES
***

CppFlavor       = *
__SystemLibrary = DLib


*******************************************************************************
*** PLACEMENT SUMMARY
***

"A1":  place at 0x0800c000 { ro section .intvec };
"P1":  place in [from 0x0800c000 to 0x0801ffff] { ro };
"P2":  place in [from 0x20000000 to 0x2000ffff] { rw, block CSTACK, block HEAP };

  Section            Kind        Address    Size  Object
  -------            ----        -------    ----  ------
"A1":                                      0x150
  .intvec            ro code  0x0800c000   0x150  startup_stm32f10x_cl.o [1]
                            - 0x0800c150   0x150

"P1":                                     0x8810
  .text              ro code  0x0800c150   0xcce  xprintffull.o [3]
  .text              ro code  0x0800ce1e    0x22  zero_init3.o [5]
  .text              ro code  0x0800ce40    0x16  strchr.o [5]
  .text              ro code  0x0800ce56    0x1e  xsscin.o [3]
  .text              ro code  0x0800ce74    0x36  strlen.o [5]
  .text              ro code  0x0800ceaa    0x1a  xsnprout.o [3]
  .text              ro code  0x0800cec4    0x58  memchr.o [5]
  .text              ro code  0x0800cf1c    0xee  I64DivMod.o [5]
  .text              ro code  0x0800d00a     0xe  usbd_usr.o [1]
  .text              ro code  0x0800d018    0x76  ABImemcpy.o [5]
  .text              ro code  0x0800d08e    0x42  xdnorm.o [4]
  .text              ro code  0x0800d0d0    0x2e  DblCmpLe.o [4]
  .text              ro code  0x0800d0fe     0xa  xsprout.o [3]
  .text              ro code  0x0800d108    0x2e  DblCmpGe.o [4]
  .rodata            const    0x0800d136     0x1  base64.o [1]
  .text              ro code  0x0800d138   0x10c  xdscale.o [4]
  .text              ro code  0x0800d244    0x58  DblToI32.o [4]
  .text              ro code  0x0800d29c    0x30  I32ToDbl.o [4]
  .text              ro code  0x0800d2cc   0x180  DblSub.o [4]
  .text              ro code  0x0800d44c   0x1a2  DblMul.o [4]
  .text              ro code  0x0800d5f0   0x246  DblDiv.o [4]
  .text              ro code  0x0800d836     0xe  div.o [3]
  .text              ro code  0x0800d844     0x2  I64DivZer.o [5]
  .text              ro code  0x0800d848    0xe8  DblAdd.o [4]
  .text              ro code  0x0800d930   0xb2e  usb_core.o [1]
  .text              ro code  0x0800e45e    0x6e  usb_bsp.o [1]
  .text              ro code  0x0800e4cc   0x250  stm32f10x_rcc.o [1]
  .text              ro code  0x0800e71c    0x9c  misc.o [1]
  .text              ro code  0x0800e7b8   0xa38  main.o [1]
  .text              ro code  0x0800f1f0   0x186  stm32f10x_flash.o [1]
  .text              ro code  0x0800f376    0x16  usbd_cdc_vcp.o [1]
  .text              ro code  0x0800f38c   0x918  md5.o [1]
  .text              ro code  0x0800fca4    0x16  main.o [1]
  .text              ro code  0x0800fcbc   0x1a4  base64.o [1]
  .text              ro code  0x0800fe60   0x13c  console_tail.o [1]
  .text              ro code  0x0800ff9c   0x3f4  usbd_cdc_vcp.o [1]
  .text              ro code  0x08010390    0x44  strcpy.o [5]
  .text              ro code  0x080103d4    0x24  printf.o [3]
  .text              ro code  0x080103f8     0xc  base64.o [1]
  .text              ro code  0x08010404     0x4  strtoul.o [3]
  .text              ro code  0x08010408   0x400  i2c_ee.o [1]
  .text              ro code  0x08010808   0x1ec  stm32f10x_gpio.o [1]
  .text              ro code  0x080109f4   0x1b4  hardware.o [1]
  .text              ro code  0x08010ba8   0x338  usbd_core.o [1]
  .text              ro code  0x08010ee0    0x34  getchar.o [3]
  .text              ro code  0x08010f14    0x66  ABImemset.o [5]
  .text              ro code  0x08010f7c    0x62  memcmp.o [5]
  .text              ro code  0x08010fe0    0x34  sprintf.o [3]
  .text              ro code  0x08011014    0x24  sscanf.o [3]
  .text              ro code  0x08011038    0x2c  vsprintf.o [3]
  .text              ro code  0x08011064    0x16  base64.o [1]
  .text              ro code  0x0801107c   0x174  xstoul.o [3]
  .text              ro code  0x080111f0     0xc  time.o [1]
  .text              ro code  0x080111fc   0x238  stm32f10x_i2c.o [1]
  .text              ro code  0x08011434   0x2e6  usb_dcd.o [1]
  .text              ro code  0x0801171c   0x6be  usbd_req.o [1]
  .text              ro code  0x08011dda    0xe4  usbd_ioreq.o [1]
  .text              ro code  0x08011ec0   0xa34  xscanffull.o [3]
  .text              ro code  0x080128f4     0xc  errno.o [3]
  .text              ro code  0x08012900    0xa2  xstoll.o [3]
  .text              ro code  0x080129a4   0x1b4  xstoull.o [3]
  .text              ro code  0x08012b58   0x144  xstold.o [4]
  .text              ro code  0x08012c9c    0x90  DblToFlt.o [4]
  .text              ro code  0x08012d2c     0x2  xtls.o [3]
  .text              ro code  0x08012d2e   0x130  xstopfx.o [3]
  .text              ro code  0x08012e60   0x1a8  xstoflt.o [3]
  .text              ro code  0x08013008   0x1f0  xdtento.o [4]
  .text              ro code  0x080131f8   0x1fc  xstoxflt.o [3]
  .text              ro code  0x080133f4    0x20  DblCmpEq.o [4]
  .text              ro code  0x08013414   0x6fa  usb_dcd_int.o [1]
  .text              ro code  0x08013b10   0x340  usbd_cdc_core.o [1]
  .text              ro code  0x08013e50   0x1a8  stm32f10x_it.o [1]
  .text              ro code  0x08013ff8     0xc  stm32f10x_exti.o [1]
  .text              ro code  0x08014004    0x3a  stm32f10x_tim.o [1]
  .text              ro code  0x08014040   0x1a4  system_stm32f10x.o [1]
  .text              ro code  0x080141e4    0xc0  usbd_desc.o [1]
  .text              ro code  0x080142a4    0x44  snprintf.o [3]
  .text              ro code  0x080142e8    0xa6  packbits_init3.o [5]
  .rodata            const    0x08014390    0x70  main.o [1]
  .rodata            const    0x08014400    0x44  base64.o [1]
  .text              ro code  0x08014444    0x28  putchar.o [3]
  .text              ro code  0x0801446c    0x28  data_init3.o [5]
  .iar.init_table    const    0x08014494    0x2c  - Linker created -
  .rodata            const    0x080144c0    0x20  main.o [1]
  .rodata            const    0x080144e0    0x18  main.o [1]
  .rodata            const    0x080144f8    0x18  stm32f10x_it.o [1]
  .rodata            const    0x08014510    0x18  usbd_desc.o [1]
  .text              ro code  0x08014528    0x16  cmain.o [5]
  .text              ro code  0x0801453e     0x4  low_level_init.o [3]
  .text              ro code  0x08014542     0x4  exit.o [3]
  .text              ro code  0x08014548     0xa  cexit.o [5]
  .text              ro code  0x08014554    0x14  exit.o [6]
  .text              ro code  0x08014568    0x16  xprout.o [3]
  .rodata            const    0x08014580    0x14  hardware.o [1]
  .rodata            const    0x08014594    0x14  main.o [1]
  .rodata            const    0x080145a8    0x14  main.o [1]
  .rodata            const    0x080145bc    0x14  usbd_desc.o [1]
  .rodata            const    0x080145d0    0x10  usbd_desc.o [1]
  .text              ro code  0x080145e0    0x10  startup_stm32f10x_cl.o [1]
  .rodata            const    0x080145f0     0xc  hardware.o [1]
  .rodata            const    0x080145fc     0xc  main.o [1]
  .rodata            const    0x08014608     0xc  stm32f10x_it.o [1]
  .rodata            const    0x08014614     0xc  stm32f10x_it.o [1]
  .rodata            const    0x08014620     0xc  stm32f10x_it.o [1]
  .rodata            const    0x0801462c     0xc  stm32f10x_it.o [1]
  .rodata            const    0x08014638     0xc  stm32f10x_it.o [1]
  .rodata            const    0x08014644     0xc  stm32f10x_it.o [1]
  .rodata            const    0x08014650     0xc  stm32f10x_it.o [1]
  .rodata            const    0x0801465c     0xc  stm32f10x_it.o [1]
  .rodata            const    0x08014668     0xc  stm32f10x_it.o [1]
  .rodata            const    0x08014674     0xc  stm32f10x_it.o [1]
  .rodata            const    0x08014680     0xc  stm32f10x_it.o [1]
  .rodata            const    0x0801468c     0xc  stm32f10x_it.o [1]
  .rodata            const    0x08014698     0xc  stm32f10x_it.o [1]
  .rodata            const    0x080146a4     0xc  usbd_desc.o [1]
  .text              ro code  0x080146b0     0xc  cstartup_M.o [5]
  .rodata            const    0x080146bc     0x8  console_tail.o [1]
  .rodata            const    0x080146c4     0x8  console_tail.o [1]
  .rodata            const    0x080146cc     0x8  console_tail.o [1]
  .rodata            const    0x080146d4     0x8  usbd_desc.o [1]
  .text              ro code  0x080146dc     0x4  startup_stm32f10x_cl.o [1]
  .text              ro code  0x080146e0     0x4  startup_stm32f10x_cl.o [1]
  .text              ro code  0x080146e4     0x4  startup_stm32f10x_cl.o [1]
  .text              ro code  0x080146e8     0x4  startup_stm32f10x_cl.o [1]
  .text              ro code  0x080146ec     0x4  startup_stm32f10x_cl.o [1]
  .text              ro code  0x080146f0     0x4  startup_stm32f10x_cl.o [1]
  .text              ro code  0x080146f4     0x4  startup_stm32f10x_cl.o [1]
  .text              ro code  0x080146f8     0x4  startup_stm32f10x_cl.o [1]
  .text              ro code  0x080146fc     0x4  startup_stm32f10x_cl.o [1]
  .text              ro code  0x08014700     0x4  startup_stm32f10x_cl.o [1]
  .text              ro code  0x08014704     0x4  startup_stm32f10x_cl.o [1]
  .text              ro code  0x08014708     0x4  startup_stm32f10x_cl.o [1]
  .text              ro code  0x0801470c     0x4  startup_stm32f10x_cl.o [1]
  .text              ro code  0x08014710     0x4  startup_stm32f10x_cl.o [1]
  .text              ro code  0x08014714     0x4  startup_stm32f10x_cl.o [1]
  .text              ro code  0x08014718     0x4  startup_stm32f10x_cl.o [1]
  .text              ro code  0x0801471c     0x4  startup_stm32f10x_cl.o [1]
  .text              ro code  0x08014720     0x4  startup_stm32f10x_cl.o [1]
  .text              ro code  0x08014724     0x4  startup_stm32f10x_cl.o [1]
  .text              ro code  0x08014728     0x4  startup_stm32f10x_cl.o [1]
  .text              ro code  0x0801472c     0x4  startup_stm32f10x_cl.o [1]
  .text              ro code  0x08014730     0x4  startup_stm32f10x_cl.o [1]
  .text              ro code  0x08014734     0x4  startup_stm32f10x_cl.o [1]
  .text              ro code  0x08014738     0x4  startup_stm32f10x_cl.o [1]
  .text              ro code  0x0801473c     0x4  startup_stm32f10x_cl.o [1]
  .text              ro code  0x08014740     0x4  startup_stm32f10x_cl.o [1]
  .text              ro code  0x08014744     0x4  startup_stm32f10x_cl.o [1]
  .text              ro code  0x08014748     0x4  startup_stm32f10x_cl.o [1]
  .text              ro code  0x0801474c     0x4  startup_stm32f10x_cl.o [1]
  .text              ro code  0x08014750     0x4  startup_stm32f10x_cl.o [1]
  .text              ro code  0x08014754     0x4  startup_stm32f10x_cl.o [1]
  .text              ro code  0x08014758     0x4  startup_stm32f10x_cl.o [1]
  .text              ro code  0x0801475c     0x4  startup_stm32f10x_cl.o [1]
  .text              ro code  0x08014760     0x4  startup_stm32f10x_cl.o [1]
  .text              ro code  0x08014764     0x4  startup_stm32f10x_cl.o [1]
  .text              ro code  0x08014768     0x4  startup_stm32f10x_cl.o [1]
  .text              ro code  0x0801476c     0x4  startup_stm32f10x_cl.o [1]
  .text              ro code  0x08014770     0x4  startup_stm32f10x_cl.o [1]
  .text              ro code  0x08014774     0x4  startup_stm32f10x_cl.o [1]
  .text              ro code  0x08014778     0x4  startup_stm32f10x_cl.o [1]
  .text              ro code  0x0801477c     0x4  startup_stm32f10x_cl.o [1]
  .text              ro code  0x08014780     0x4  startup_stm32f10x_cl.o [1]
  .text              ro code  0x08014784     0x4  startup_stm32f10x_cl.o [1]
  .text              ro code  0x08014788     0x4  startup_stm32f10x_cl.o [1]
  .text              ro code  0x0801478c     0x4  startup_stm32f10x_cl.o [1]
  .text              ro code  0x08014790     0x4  startup_stm32f10x_cl.o [1]
  .text              ro code  0x08014794     0x4  startup_stm32f10x_cl.o [1]
  .text              ro code  0x08014798     0x4  startup_stm32f10x_cl.o [1]
  .text              ro code  0x0801479c     0x4  startup_stm32f10x_cl.o [1]
  .text              ro code  0x080147a0     0x4  startup_stm32f10x_cl.o [1]
  .text              ro code  0x080147a4     0x4  startup_stm32f10x_cl.o [1]
  .text              ro code  0x080147a8     0x4  startup_stm32f10x_cl.o [1]
  .text              ro code  0x080147ac     0x4  startup_stm32f10x_cl.o [1]
  .text              ro code  0x080147b0     0x4  startup_stm32f10x_cl.o [1]
  .text              ro code  0x080147b4     0x4  startup_stm32f10x_cl.o [1]
  .text              ro code  0x080147b8     0x4  startup_stm32f10x_cl.o [1]
  .text              ro code  0x080147bc     0x4  startup_stm32f10x_cl.o [1]
  .text              ro code  0x080147c0     0x4  startup_stm32f10x_cl.o [1]
  .text              ro code  0x080147c4     0x4  startup_stm32f10x_cl.o [1]
  .text              ro code  0x080147c8     0x4  startup_stm32f10x_cl.o [1]
  .text              ro code  0x080147cc     0x4  startup_stm32f10x_cl.o [1]
  .text              ro code  0x080147d0     0x4  startup_stm32f10x_cl.o [1]
  .text              ro code  0x080147d4     0x4  startup_stm32f10x_cl.o [1]
  .text              ro code  0x080147d8     0x4  startup_stm32f10x_cl.o [1]
  .text              ro code  0x080147dc     0x4  startup_stm32f10x_cl.o [1]
  .text              ro code  0x080147e0     0x4  startup_stm32f10x_cl.o [1]
  .text              ro code  0x080147e4     0x4  startup_stm32f10x_cl.o [1]
  .text              ro code  0x080147e8     0x4  startup_stm32f10x_cl.o [1]
  .text              ro code  0x080147ec     0x4  startup_stm32f10x_cl.o [1]
  .text              ro code  0x080147f0     0x4  startup_stm32f10x_cl.o [1]
  .rodata            const    0x080147f4     0x0  zero_init3.o [5]
  .rodata            const    0x080147f4     0x0  packbits_init3.o [5]
  Initializer bytes  ro data  0x080147f4   0x16a  <for P2 s0>
                            - 0x0801495e  0x880e

"P2", part 1 of 3:                         0x990
  P2 s0                       0x20000000   0x990  <Init block>
    .data            inited   0x20000000   0x808  main.o [1]
    .data            inited   0x20000808    0x44  usbd_cdc_core.o [1]
    .data            inited   0x2000084c    0x40  md5.o [1]
    .data            inited   0x2000088c    0x2c  usbd_cdc_core.o [1]
    .data            inited   0x200008b8    0x2c  usbd_core.o [1]
    .data            inited   0x200008e4    0x1c  usbd_desc.o [1]
    .data            inited   0x20000900    0x1c  usbd_usr.o [1]
    .data            inited   0x2000091c    0x14  hardware.o [1]
    .data            inited   0x20000930    0x14  usbd_cdc_vcp.o [1]
    .data            inited   0x20000944    0x14  usbd_desc.o [1]
    .data            inited   0x20000958    0x10  stm32f10x_rcc.o [1]
    .data            inited   0x20000968     0x8  usbd_cdc_vcp.o [1]
    .data            inited   0x20000970     0x4  main.o [1]
    .data            inited   0x20000974     0x4  stm32f10x_rcc.o [1]
    .data            inited   0x20000978     0x4  system_stm32f10x.o [1]
    .data            inited   0x2000097c     0x4  usbd_cdc_core.o [1]
    .data            inited   0x20000980     0x4  usbd_core.o [1]
    .data            inited   0x20000984     0x4  usbd_desc.o [1]
    .data            inited   0x20000988     0x4  getchar.o [3]
    .data            inited   0x2000098c     0x2  hardware.o [1]
    .data            inited   0x2000098e     0x1  main.o [1]
    .data            inited   0x2000098f     0x1  stm32f10x_it.o [1]
                            - 0x20000990   0x990

"P2", part 2 of 3:                        0x21c8
  .bss               zero     0x20000990   0x800  main.o [1]
  .bss               zero     0x20001190   0x800  usbd_cdc_core.o [1]
  .bss               zero     0x20001990   0x5f4  main.o [1]
  .bss               zero     0x20001f84   0x400  usbd_cdc_vcp.o [1]
  .bss               zero     0x20002384   0x300  console_tail.o [1]
  .bss               zero     0x20002684   0x200  usbd_cdc_vcp.o [1]
  .bss               zero     0x20002884   0x104  main.o [1]
  .bss               zero     0x20002988   0x100  usbd_req.o [1]
  .bss               zero     0x20002a88    0x40  usbd_cdc_core.o [1]
  .bss               zero     0x20002ac8    0x10  console_tail.o [1]
  .bss               zero     0x20002ad8     0x8  i2c_ee.o [1]
  .bss               zero     0x20002ae0     0x8  main.o [1]
  .bss               zero     0x20002ae8     0x8  usbd_cdc_core.o [1]
  .bss               zero     0x20002af0     0x4  console_tail.o [1]
  .bss               zero     0x20002af4     0x4  console_tail.o [1]
  .bss               zero     0x20002af8     0x4  main.o [1]
  .bss               zero     0x20002afc     0x4  main.o [1]
  .bss               zero     0x20002b00     0x4  main.o [1]
  .bss               zero     0x20002b04     0x4  main.o [1]
  .bss               zero     0x20002b08     0x4  main.o [1]
  .bss               zero     0x20002b0c     0x4  main.o [1]
  .bss               zero     0x20002b10     0x4  stm32f10x_it.o [1]
  .bss               zero     0x20002b14     0x4  usbd_cdc_core.o [1]
  .bss               zero     0x20002b18     0x4  usbd_cdc_core.o [1]
  .bss               zero     0x20002b1c     0x4  usbd_cdc_core.o [1]
  .bss               zero     0x20002b20     0x4  usbd_cdc_core.o [1]
  .bss               zero     0x20002b24     0x4  usbd_cdc_core.o [1]
  .bss               zero     0x20002b28     0x4  usbd_cdc_core.o [1]
  .bss               zero     0x20002b2c     0x4  usbd_cdc_vcp.o [1]
  .bss               zero     0x20002b30     0x4  usbd_cdc_vcp.o [1]
  .bss               zero     0x20002b34     0x4  usbd_core.o [1]
  .bss               zero     0x20002b38     0x4  usbd_req.o [1]
  .bss               zero     0x20002b3c     0x4  usbd_req.o [1]
  .bss               zero     0x20002b40     0x4  usbd_req.o [1]
  __DLIB_PERTHREAD   zero     0x20002b44     0x4  errno.o [3]
  .bss               zero     0x20002b48     0x2  main.o [1]
  .bss               zero     0x20002b4a     0x2  main.o [1]
  .bss               zero     0x20002b4c     0x2  main.o [1]
  .bss               zero     0x20002b4e     0x1  main.o [1]
  .bss               zero     0x20002b4f     0x1  main.o [1]
  .bss               zero     0x20002b50     0x1  main.o [1]
  .bss               zero     0x20002b51     0x1  usbd_cdc_core.o [1]
  .bss               zero     0x20002b52     0x1  usbd_req.o [1]
                            - 0x20002b53  0x21c3

"P2", part 3 of 3:                        0x1000
  CSTACK                      0x20002b58  0x1000  <Block>
    CSTACK           uninit   0x20002b58  0x1000  <Block tail>
                            - 0x20003b58  0x1000


*******************************************************************************
*** INIT TABLE
***

          Address     Size
          -------     ----
Zero (__iar_zero_init3)
    1 destination range, total size 0x21c3:
          0x20000990  0x21c3

Copy/packbits (__iar_packbits_init3)
    1 source range, total size 0x16a (14% of destination):
          0x080147f4   0x16a
    1 destination range, total size 0x990:
          0x20000000   0x990



*******************************************************************************
*** MODULE SUMMARY
***

    Module                  ro code  ro data  rw data
    ------                  -------  -------  -------
C:\CAST\frimware2.7_phase\firmware\Bootloader\IAR\Release-MainMemory-Beacon\Obj: [1]
    base64.o                    454       69
    console_tail.o              316       24      792
    hardware.o                  436       35       22
    i2c_ee.o                  1 024                 8
    main.o                    2 638      524    5 934
    md5.o                     2 328        9       64
    misc.o                      156
    startup_stm32f10x_cl.o      632
    stm32f10x_exti.o             12
    stm32f10x_flash.o           390
    stm32f10x_gpio.o            492
    stm32f10x_i2c.o             568
    stm32f10x_it.o              424      181        5
    stm32f10x_rcc.o             592        4       20
    stm32f10x_tim.o              58
    system_stm32f10x.o          420        1        4
    time.o                       12
    usb_bsp.o                   110
    usb_core.o                2 862
    usb_dcd.o                   742
    usb_dcd_int.o             1 786
    usbd_cdc_core.o             832       17    2 261
    usbd_cdc_vcp.o            1 034        4    1 572
    usbd_core.o                 824        7       52
    usbd_desc.o                 192       87       52
    usbd_ioreq.o                228
    usbd_req.o                1 726               269
    usbd_usr.o                   14        4       28
    -------------------------------------------------
    Total:                   21 302      966   11 083

command line: [2]
    -------------------------------------------------
    Total:

dl7M_tln.a: [3]
    div.o                        14
    errno.o                      12                 4
    exit.o                        4
    getchar.o                    52        1        4
    low_level_init.o              4
    printf.o                     36
    putchar.o                    40
    snprintf.o                   68
    sprintf.o                    52
    sscanf.o                     36
    strtoul.o                     4
    vsprintf.o                   44
    xprintffull.o             3 278
    xprout.o                     22
    xscanffull.o              2 612
    xsnprout.o                   26
    xsprout.o                    10
    xsscin.o                     30
    xstoflt.o                   424
    xstoll.o                    162
    xstopfx.o                   304
    xstoul.o                    372
    xstoull.o                   436
    xstoxflt.o                  508
    xtls.o                        2
    -------------------------------------------------
    Total:                    8 552        1        8

m7M_tl.a: [4]
    DblAdd.o                    232
    DblCmpEq.o                   32
    DblCmpGe.o                   46
    DblCmpLe.o                   46
    DblDiv.o                    582
    DblMul.o                    418
    DblSub.o                    384
    DblToFlt.o                  144
    DblToI32.o                   88
    I32ToDbl.o                   48
    xdnorm.o                     66
    xdscale.o                   268
    xdtento.o                   496
    xstold.o                    324
    -------------------------------------------------
    Total:                    3 174

rt7M_tl.a: [5]
    ABImemcpy.o                 118
    ABImemset.o                 102
    I64DivMod.o                 238
    I64DivZer.o                   2
    cexit.o                      10
    cmain.o                      22
    cstartup_M.o                 12
    data_init3.o                 40
    memchr.o                     88
    memcmp.o                     98
    packbits_init3.o            166
    strchr.o                     22
    strcpy.o                     68
    strlen.o                     54
    zero_init3.o                 34
    -------------------------------------------------
    Total:                    1 074

shb_l.a: [6]
    exit.o                       20
    -------------------------------------------------
    Total:                       20

    Gaps                         29        4
    Linker created                        44    4 096
-----------------------------------------------------
    Grand Total:             34 151    1 015   15 187


*******************************************************************************
*** ENTRY LIST
***

Entry                      Address   Size  Type      Object
-----                      -------   ----  ----      ------
?main                   0x08014529         Code  Gb  cmain.o [5]
ADC1_2_IRQHandler       0x08014749         Code  Wk  startup_stm32f10x_cl.o [1]
ADCPrescTable           0x20000974    0x4  Data  Lc  stm32f10x_rcc.o [1]
APBAHBPrescTable        0x20000958   0x10  Data  Lc  stm32f10x_rcc.o [1]
APP_Rx_Buffer           0x20001190  0x800  Data  Gb  usbd_cdc_core.o [1]
APP_Rx_length           0x20002b20    0x4  Data  Gb  usbd_cdc_core.o [1]
APP_Rx_ptr_in           0x20002b18    0x4  Data  Gb  usbd_cdc_core.o [1]
APP_Rx_ptr_out          0x20002b1c    0x4  Data  Gb  usbd_cdc_core.o [1]
APP_Tx_Buffer           0x20001f84  0x400  Data  Lc  usbd_cdc_vcp.o [1]
APP_Tx_ptr_in           0x20002b30    0x4  Data  Gb  usbd_cdc_vcp.o [1]
APP_Tx_ptr_out          0x20002b2c    0x4  Data  Gb  usbd_cdc_vcp.o [1]
Base64                  0x08014400   0x44  Data  Lc  base64.o [1]
BusFault_Handler        0x08013f0b    0x2  Code  Gb  stm32f10x_it.o [1]
CAN1_RX0_IRQHandler     0x08014751         Code  Wk  startup_stm32f10x_cl.o [1]
CAN1_RX1_IRQHandler     0x08014755         Code  Wk  startup_stm32f10x_cl.o [1]
CAN1_SCE_IRQHandler     0x08014759         Code  Wk  startup_stm32f10x_cl.o [1]
CAN1_TX_IRQHandler      0x0801474d         Code  Wk  startup_stm32f10x_cl.o [1]
CAN2_RX0_IRQHandler     0x080147e5         Code  Wk  startup_stm32f10x_cl.o [1]
CAN2_RX1_IRQHandler     0x080147e9         Code  Wk  startup_stm32f10x_cl.o [1]
CAN2_SCE_IRQHandler     0x080147ed         Code  Wk  startup_stm32f10x_cl.o [1]
CAN2_TX_IRQHandler      0x080147e1         Code  Wk  startup_stm32f10x_cl.o [1]
CSTACK$$Base            0x20002b58          --   Gb  - Linker created -
CSTACK$$Limit           0x20003b58          --   Gb  - Linker created -
CmdBuff                 0x20002ae8    0x8  Data  Gb  usbd_cdc_core.o [1]
CoGetOSTime             0x080111f1    0x8  Code  Gb  time.o [1]
ConfigureGPIO           0x0800efb1   0x30  Code  Lc  main.o [1]
ConsoleChecksum         0x0800fe61   0x1a  Code  Gb  console_tail.o [1]
CurrentDataPointer      0x20002b48    0x2  Data  Lc  main.o [1]
DCD_EP_Close            0x08011553   0x4a  Code  Gb  usb_dcd.o [1]
DCD_EP_ClrStall         0x080116b1   0x50  Code  Gb  usb_dcd.o [1]
DCD_EP_Open             0x080114d7   0x7c  Code  Gb  usb_dcd.o [1]
DCD_EP_PrepareRx        0x0801159d   0x66  Code  Gb  usb_dcd.o [1]
DCD_EP_SetAddress       0x08011701   0x1a  Code  Gb  usb_dcd.o [1]
DCD_EP_Stall            0x08011661   0x50  Code  Gb  usb_dcd.o [1]
DCD_EP_Tx               0x08011603   0x5e  Code  Gb  usb_dcd.o [1]
DCD_HandleEnumDone_ISR  0x08013a4d   0x4e  Code  Lc  usb_dcd_int.o [1]
DCD_HandleInEP_ISR      0x0801363f  0x108  Code  Lc  usb_dcd_int.o [1]
DCD_HandleOutEP_ISR     0x08013747   0xde  Code  Lc  usb_dcd_int.o [1]
DCD_HandleResume_ISR    0x08013567   0x4c  Code  Lc  usb_dcd_int.o [1]
DCD_HandleRxStatusQueueLevel_ISR
                        0x08013843   0xa4  Code  Lc  usb_dcd_int.o [1]
DCD_HandleSof_ISR       0x08013825   0x1e  Code  Lc  usb_dcd_int.o [1]
DCD_HandleUSBSuspend_ISR
                        0x080135b3   0x8c  Code  Lc  usb_dcd_int.o [1]
DCD_HandleUsbReset_ISR  0x08013987   0xc6  Code  Lc  usb_dcd_int.o [1]
DCD_Init                0x08011435   0xa2  Code  Gb  usb_dcd.o [1]
DCD_IsoINIncomplete_ISR
                        0x08013a9b   0x1e  Code  Lc  usb_dcd_int.o [1]
DCD_IsoOUTIncomplete_ISR
                        0x08013ab9   0x1e  Code  Lc  usb_dcd_int.o [1]
DCD_OTG_ISR             0x08013541   0x26  Code  Lc  usb_dcd_int.o [1]
DCD_ReadDevInEP         0x08013ae1   0x2e  Code  Lc  usb_dcd_int.o [1]
DCD_SessionRequest_ISR  0x08013521   0x20  Code  Lc  usb_dcd_int.o [1]
DCD_WriteEmptyTxFifo    0x080138e7   0xa0  Code  Lc  usb_dcd_int.o [1]
DMA1_Channel1_IRQHandler
                        0x0801472d         Code  Wk  startup_stm32f10x_cl.o [1]
DMA1_Channel2_IRQHandler
                        0x08014731         Code  Wk  startup_stm32f10x_cl.o [1]
DMA1_Channel3_IRQHandler
                        0x08014735         Code  Wk  startup_stm32f10x_cl.o [1]
DMA1_Channel4_IRQHandler
                        0x08014739         Code  Wk  startup_stm32f10x_cl.o [1]
DMA1_Channel5_IRQHandler
                        0x0801473d         Code  Wk  startup_stm32f10x_cl.o [1]
DMA1_Channel6_IRQHandler
                        0x08014741         Code  Wk  startup_stm32f10x_cl.o [1]
DMA1_Channel7_IRQHandler
                        0x08014745         Code  Wk  startup_stm32f10x_cl.o [1]
DMA2_Channel1_IRQHandler
                        0x080147c5         Code  Wk  startup_stm32f10x_cl.o [1]
DMA2_Channel2_IRQHandler
                        0x080147c9         Code  Wk  startup_stm32f10x_cl.o [1]
DMA2_Channel3_IRQHandler
                        0x080147cd         Code  Wk  startup_stm32f10x_cl.o [1]
DMA2_Channel4_IRQHandler
                        0x080147d1         Code  Wk  startup_stm32f10x_cl.o [1]
DMA2_Channel5_IRQHandler
                        0x080147d5         Code  Wk  startup_stm32f10x_cl.o [1]
DebugMon_Handler        0x08013f11    0x2  Code  Gb  stm32f10x_it.o [1]
EEPROM_ADDRESS          0x2000098c    0x2  Data  Gb  hardware.o [1]
EETime                  0x08010409   0x10  Code  Gb  i2c_ee.o [1]
ETH_IRQHandler          0x080147d9         Code  Wk  startup_stm32f10x_cl.o [1]
ETH_WKUP_IRQHandler     0x080147dd         Code  Wk  startup_stm32f10x_cl.o [1]
EXTI0_IRQHandler        0x08014719         Code  Wk  startup_stm32f10x_cl.o [1]
EXTI15_10_IRQHandler    0x080147a1         Code  Wk  startup_stm32f10x_cl.o [1]
EXTI1_IRQHandler        0x0801471d         Code  Wk  startup_stm32f10x_cl.o [1]
EXTI2_IRQHandler        0x08013f55    0xa  Code  Gb  stm32f10x_it.o [1]
EXTI3_IRQHandler        0x08014725         Code  Wk  startup_stm32f10x_cl.o [1]
EXTI4_IRQHandler        0x08014729         Code  Wk  startup_stm32f10x_cl.o [1]
EXTI9_5_IRQHandler      0x0801475d         Code  Wk  startup_stm32f10x_cl.o [1]
EXTI_ClearITPendingBit  0x08013ff9    0x6  Code  Gb  stm32f10x_exti.o [1]
FLASH_ClearFlag         0x0800f2f7    0x6  Code  Gb  stm32f10x_flash.o [1]
FLASH_ErasePage         0x0800f219   0x5e  Code  Gb  stm32f10x_flash.o [1]
FLASH_GetBank1Status    0x0800f2fd   0x34  Code  Gb  stm32f10x_flash.o [1]
FLASH_IRQHandler        0x08014711         Code  Wk  startup_stm32f10x_cl.o [1]
FLASH_Lock              0x0800f207   0x12  Code  Gb  stm32f10x_flash.o [1]
FLASH_ProgramWord       0x0800f277   0x80  Code  Gb  stm32f10x_flash.o [1]
FLASH_Unlock            0x0800f1f1   0x16  Code  Gb  stm32f10x_flash.o [1]
FLASH_WaitForLastOperation
                        0x0800f349   0x2e  Code  Gb  stm32f10x_flash.o [1]
GPIO_Init               0x08010809  0x136  Code  Gb  stm32f10x_gpio.o [1]
GPIO_PinRemapConfig     0x08010965   0x88  Code  Gb  stm32f10x_gpio.o [1]
GPIO_ReadInputDataBit   0x0801093f   0x1a  Code  Gb  stm32f10x_gpio.o [1]
GPIO_ResetBits          0x0801095f    0x6  Code  Gb  stm32f10x_gpio.o [1]
GPIO_SetBits            0x08010959    0x6  Code  Gb  stm32f10x_gpio.o [1]
GetMd5                  0x0800eb7f   0xbc  Code  Gb  main.o [1]
Handle_USBAsynchXfer    0x08013d4d   0xba  Code  Lc  usbd_cdc_core.o [1]
HardFault_Handler       0x08013ef5   0x14  Code  Gb  stm32f10x_it.o [1]
HwI2CInit               0x08010a65  0x128  Code  Gb  hardware.o [1]
HwLEDInit               0x08010a15   0x3c  Code  Gb  hardware.o [1]
HwLEDOff                0x08010a51   0x14  Code  Gb  hardware.o [1]
HwLEDToggle             0x080109f5   0x20  Code  Gb  hardware.o [1]
I2C1_ER_IRQHandler      0x08014781         Code  Wk  startup_stm32f10x_cl.o [1]
I2C1_EV_IRQHandler      0x0801477d         Code  Wk  startup_stm32f10x_cl.o [1]
I2C2_ER_IRQHandler      0x08014789         Code  Wk  startup_stm32f10x_cl.o [1]
I2C2_EV_IRQHandler      0x08014785         Code  Wk  startup_stm32f10x_cl.o [1]
I2C_AcknowledgeConfig   0x08011351   0x1c  Code  Gb  stm32f10x_i2c.o [1]
I2C_CheckEvent          0x080113a9   0x38  Code  Gb  stm32f10x_i2c.o [1]
I2C_ClearFlag           0x08011427    0xe  Code  Gb  stm32f10x_i2c.o [1]
I2C_Cmd                 0x080112fd   0x1c  Code  Gb  stm32f10x_i2c.o [1]
I2C_EE_BufferRead       0x08010467   0xd6  Code  Gb  i2c_ee.o [1]
I2C_EE_BufferWrite      0x0801053d  0x164  Code  Gb  i2c_ee.o [1]
I2C_EE_PageWrite        0x08010441   0x26  Code  Gb  i2c_ee.o [1]
I2C_EE_PageWriteIMP     0x080106a1   0xee  Code  Lc  i2c_ee.o [1]
I2C_EE_WaitEepromStandbyState
                        0x0801078f   0x54  Code  Lc  i2c_ee.o [1]
I2C_GenerateSTART       0x08011319   0x1c  Code  Gb  stm32f10x_i2c.o [1]
I2C_GenerateSTOP        0x08011335   0x1c  Code  Gb  stm32f10x_i2c.o [1]
I2C_GetFlagStatus       0x080113e1   0x46  Code  Gb  stm32f10x_i2c.o [1]
I2C_Init                0x080111fd   0xf2  Code  Gb  stm32f10x_i2c.o [1]
I2C_ReadRegister        0x0801138f   0x1a  Code  Gb  stm32f10x_i2c.o [1]
I2C_ReceiveData         0x08011373    0x6  Code  Gb  stm32f10x_i2c.o [1]
I2C_Send7bitAddress     0x08011379   0x16  Code  Gb  stm32f10x_i2c.o [1]
I2C_SendData            0x0801136d    0x6  Code  Gb  stm32f10x_i2c.o [1]
LED_CLK                 0x08014580   0x14  Data  Gb  hardware.o [1]
LED_PIN                 0x080145f0    0xc  Data  Gb  hardware.o [1]
LED_PORT                0x2000091c   0x14  Data  Gb  hardware.o [1]
LockPowerSupply         0x0800efe1   0x3a  Code  Lc  main.o [1]
MD5Final                0x0800f451   0xe0  Code  Gb  md5.o [1]
MD5Init                 0x0800f38d   0x20  Code  Gb  md5.o [1]
MD5Update               0x0800f3ad   0xa4  Code  Gb  md5.o [1]
MemManage_Handler       0x08013f09    0x2  Code  Gb  stm32f10x_it.o [1]
NMI_Handler             0x08013e51    0x2  Code  Gb  stm32f10x_it.o [1]
NVIC_GenerateSystemReset
                        0x0800eda5    0xc  Code  Gb  main.o [1]
NVIC_Init               0x0800e727   0x68  Code  Gb  misc.o [1]
NVIC_PriorityGroupConfig
                        0x0800e71d    0xa  Code  Gb  misc.o [1]
NVIC_SetPriority        0x0800e7b9   0x26  Code  Lc  main.o [1]
NVIC_SetVectorTable     0x0800e78f    0xc  Code  Gb  misc.o [1]
OSTickCnt               0x20002ae0    0x8  Data  Gb  main.o [1]
OTG_FS_IRQHandler       0x08013f4b    0xa  Code  Gb  stm32f10x_it.o [1]
OTG_FS_WKUP_IRQHandler  0x080147a9         Code  Wk  startup_stm32f10x_cl.o [1]
PADDING                 0x2000084c   0x40  Data  Lc  md5.o [1]
PVD_IRQHandler          0x08014705         Code  Wk  startup_stm32f10x_cl.o [1]
Pad64                   0x0800d136    0x1  Data  Lc  base64.o [1]
PendSV_Handler          0x08013f13    0x2  Code  Gb  stm32f10x_it.o [1]
RCC_AHBPeriphClockCmd   0x0800e675   0x1e  Code  Gb  stm32f10x_rcc.o [1]
RCC_APB1PeriphClockCmd  0x0800e6b1   0x1e  Code  Gb  stm32f10x_rcc.o [1]
RCC_APB1PeriphResetCmd  0x0800e6cf   0x1e  Code  Gb  stm32f10x_rcc.o [1]
RCC_APB2PeriphClockCmd  0x0800e693   0x1e  Code  Gb  stm32f10x_rcc.o [1]
RCC_GetClocksFreq       0x0800e4d5  0x1a0  Code  Gb  stm32f10x_rcc.o [1]
RCC_IRQHandler          0x08014715         Code  Wk  startup_stm32f10x_cl.o [1]
RCC_OTGFSCLKConfig      0x0800e4cd    0x8  Code  Gb  stm32f10x_rcc.o [1]
RTCAlarm_IRQHandler     0x080147a5         Code  Wk  startup_stm32f10x_cl.o [1]
RTC_IRQHandler          0x0801470d         Code  Wk  startup_stm32f10x_cl.o [1]
ReadPage                0x0800e8dd   0x24  Code  Gb  main.o [1]
Region$$Table$$Base     0x08014494          --   Gb  - Linker created -
Region$$Table$$Limit    0x080144c0          --   Gb  - Linker created -
Reset_Handler           0x080145e1         Code  Wk  startup_stm32f10x_cl.o [1]
SET_TEST_MODE           0x20002b34    0x4  Data  Gb  usbd_core.o [1]
SPI1_IRQHandler         0x0801478d         Code  Wk  startup_stm32f10x_cl.o [1]
SPI2_IRQHandler         0x08014791         Code  Wk  startup_stm32f10x_cl.o [1]
SPI3_IRQHandler         0x080147b1         Code  Wk  startup_stm32f10x_cl.o [1]
SVC_Handler             0x08013f0f    0x2  Code  Gb  stm32f10x_it.o [1]
SerialDownload          0x0800e901  0x27e  Code  Gb  main.o [1]
SetSysClock             0x080140a7    0x8  Code  Lc  system_stm32f10x.o [1]
SetSysClockTo72         0x080140af  0x110  Code  Lc  system_stm32f10x.o [1]
SysTickCounter          0x20002b10    0x4  Data  Gb  stm32f10x_it.o [1]
SysTick_Config          0x0800e7df   0x38  Code  Lc  main.o [1]
SysTick_Handler         0x08013f15   0x36  Code  Gb  stm32f10x_it.o [1]
SystemCoreClock         0x20000978    0x4  Data  Gb  system_stm32f10x.o [1]
SystemInit              0x08014041   0x66  Code  Gb  system_stm32f10x.o [1]
TAMPER_IRQHandler       0x08014709         Code  Wk  startup_stm32f10x_cl.o [1]
TIM1_BRK_IRQHandler     0x08014761         Code  Wk  startup_stm32f10x_cl.o [1]
TIM1_CC_IRQHandler      0x0801476d         Code  Wk  startup_stm32f10x_cl.o [1]
TIM1_TRG_COM_IRQHandler
                        0x08014769         Code  Wk  startup_stm32f10x_cl.o [1]
TIM1_UP_IRQHandler      0x08013f5f   0x36  Code  Gb  stm32f10x_it.o [1]
TIM2_IRQHandler         0x08014771         Code  Wk  startup_stm32f10x_cl.o [1]
TIM3_IRQHandler         0x08014775         Code  Wk  startup_stm32f10x_cl.o [1]
TIM4_IRQHandler         0x08014779         Code  Wk  startup_stm32f10x_cl.o [1]
TIM5_IRQHandler         0x080147ad         Code  Wk  startup_stm32f10x_cl.o [1]
TIM6_IRQHandler         0x080147bd         Code  Wk  startup_stm32f10x_cl.o [1]
TIM7_IRQHandler         0x080147c1         Code  Wk  startup_stm32f10x_cl.o [1]
TIMEVALID               0x08010419   0x28  Code  Gb  i2c_ee.o [1]
TIM_ClearITPendingBit   0x08014037    0x8  Code  Gb  stm32f10x_tim.o [1]
TIM_GetITStatus         0x08014005   0x32  Code  Gb  stm32f10x_tim.o [1]
TRACE                   0x08010345   0x26  Code  Gb  usbd_cdc_vcp.o [1]
Transform               0x0800f531  0x660  Code  Lc  md5.o [1]
UART4_IRQHandler        0x080147b5         Code  Wk  startup_stm32f10x_cl.o [1]
UART5_IRQHandler        0x080147b9         Code  Wk  startup_stm32f10x_cl.o [1]
USART1_IRQHandler       0x08014795         Code  Wk  startup_stm32f10x_cl.o [1]
USART2_IRQHandler       0x08014799         Code  Wk  startup_stm32f10x_cl.o [1]
USART3_IRQHandler       0x0801479d         Code  Wk  startup_stm32f10x_cl.o [1]
USBD_CDC_cb             0x2000088c   0x2c  Data  Gb  usbd_cdc_core.o [1]
USBD_ClrCfg             0x08010e6d   0x18  Code  Gb  usbd_core.o [1]
USBD_ClrFeature         0x08011ce5   0x3a  Code  Lc  usbd_req.o [1]
USBD_CtlContinueRx      0x08011e59   0x1e  Code  Gb  usbd_ioreq.o [1]
USBD_CtlContinueSendData
                        0x08011e0b   0x1e  Code  Gb  usbd_ioreq.o [1]
USBD_CtlError           0x08011d63   0x1e  Code  Gb  usbd_req.o [1]
USBD_CtlPrepareRx       0x08011e29   0x30  Code  Gb  usbd_ioreq.o [1]
USBD_CtlReceiveStatus   0x08011e9b   0x24  Code  Gb  usbd_ioreq.o [1]
USBD_CtlSendData        0x08011ddb   0x30  Code  Gb  usbd_ioreq.o [1]
USBD_CtlSendStatus      0x08011e77   0x24  Code  Gb  usbd_ioreq.o [1]
USBD_DCD_INT_cb         0x200008b8   0x2c  Data  Gb  usbd_core.o [1]
USBD_DCD_INT_fops       0x20000980    0x4  Data  Gb  usbd_core.o [1]
USBD_DataInStage        0x08010cdf   0xd2  Code  Lc  usbd_core.o [1]
USBD_DataOutStage       0x08010c45   0x9a  Code  Lc  usbd_core.o [1]
USBD_DeInit             0x08010bed    0x6  Code  Gb  usbd_core.o [1]
USBD_DevConnected       0x08010ea9   0x16  Code  Lc  usbd_core.o [1]
USBD_DevDisconnected    0x08010ebf   0x22  Code  Lc  usbd_core.o [1]
USBD_DeviceDesc         0x20000944   0x14  Data  Gb  usbd_desc.o [1]
USBD_GetConfig          0x08011bb9   0x48  Code  Lc  usbd_req.o [1]
USBD_GetDescriptor      0x0801195d  0x136  Code  Lc  usbd_req.o [1]
USBD_GetLen             0x08011dc7   0x14  Code  Lc  usbd_req.o [1]
USBD_GetStatus          0x08011c01   0x40  Code  Lc  usbd_req.o [1]
USBD_GetString          0x08011d81   0x46  Code  Gb  usbd_req.o [1]
USBD_Init               0x08010ba9   0x44  Code  Gb  usbd_core.o [1]
USBD_IsoINIncomplete    0x08010e85   0x12  Code  Lc  usbd_core.o [1]
USBD_IsoOUTIncomplete   0x08010e97   0x12  Code  Lc  usbd_core.o [1]
USBD_LangIDDesc         0x20000984    0x4  Data  Gb  usbd_desc.o [1]
USBD_OTG_ISR_Handler    0x08013415  0x10c  Code  Gb  usb_dcd_int.o [1]
USBD_ParseSetupRequest  0x08011d1f   0x44  Code  Gb  usbd_req.o [1]
USBD_Reset              0x08010dc5   0x30  Code  Lc  usbd_core.o [1]
USBD_Resume             0x08010df5   0x1e  Code  Lc  usbd_core.o [1]
USBD_RunTestMode        0x08010db1    0xe  Code  Lc  usbd_core.o [1]
USBD_SOF                0x08010e31   0x1c  Code  Lc  usbd_core.o [1]
USBD_SetAddress         0x08011a93   0x60  Code  Lc  usbd_req.o [1]
USBD_SetCfg             0x08010e4d   0x20  Code  Gb  usbd_core.o [1]
USBD_SetConfig          0x08011af3   0xc6  Code  Lc  usbd_req.o [1]
USBD_SetFeature         0x08011c41   0x90  Code  Lc  usbd_req.o [1]
USBD_SetupStage         0x08010bf3   0x52  Code  Lc  usbd_core.o [1]
USBD_StdDevReq          0x0801171d   0x7c  Code  Gb  usbd_req.o [1]
USBD_StdEPReq           0x080117e9  0x174  Code  Gb  usbd_req.o [1]
USBD_StdItfReq          0x08011799   0x50  Code  Gb  usbd_req.o [1]
USBD_StrDesc            0x20002988  0x100  Data  Gb  usbd_req.o [1]
USBD_Suspend            0x08010e13   0x1e  Code  Lc  usbd_core.o [1]
USBD_USR_ConfigStrDescriptor
                        0x08014257   0x14  Code  Gb  usbd_desc.o [1]
USBD_USR_DeviceConfigured
                        0x0800d00f    0x2  Code  Gb  usbd_usr.o [1]
USBD_USR_DeviceConnected
                        0x0800d015    0x2  Code  Gb  usbd_usr.o [1]
USBD_USR_DeviceDescriptor
                        0x080141e5    0xa  Code  Gb  usbd_desc.o [1]
USBD_USR_DeviceDisconnected
                        0x0800d017    0x2  Code  Gb  usbd_usr.o [1]
USBD_USR_DeviceReset    0x0800d00d    0x2  Code  Gb  usbd_usr.o [1]
USBD_USR_DeviceResumed  0x0800d013    0x2  Code  Gb  usbd_usr.o [1]
USBD_USR_DeviceSuspended
                        0x0800d011    0x2  Code  Gb  usbd_usr.o [1]
USBD_USR_Init           0x0800d00b    0x2  Code  Gb  usbd_usr.o [1]
USBD_USR_InterfaceStrDescriptor
                        0x0801426b   0x14  Code  Gb  usbd_desc.o [1]
USBD_USR_LangIDStrDescriptor
                        0x080141ef    0xa  Code  Gb  usbd_desc.o [1]
USBD_USR_ManufacturerStrDescriptor
                        0x0801420d   0x14  Code  Gb  usbd_desc.o [1]
USBD_USR_ProductStrDescriptor
                        0x080141f9   0x14  Code  Gb  usbd_desc.o [1]
USBD_USR_SerialStrDescriptor
                        0x08014221   0x36  Code  Gb  usbd_desc.o [1]
USBD_cdc_GetCfgDesc     0x08013e07    0xa  Code  Lc  usbd_cdc_core.o [1]
USBD_cfg_status         0x20002b40    0x4  Data  Gb  usbd_req.o [1]
USBD_default_cfg        0x20002b3c    0x4  Data  Gb  usbd_req.o [1]
USBD_ep_status          0x20002b38    0x4  Data  Gb  usbd_req.o [1]
USB_OTG_BSP_EnableInterrupt
                        0x0800e475   0x2e  Code  Gb  usb_bsp.o [1]
USB_OTG_BSP_Init        0x0800e45f   0x16  Code  Gb  usb_bsp.o [1]
USB_OTG_BSP_mDelay      0x0800e4bb   0x12  Code  Gb  usb_bsp.o [1]
USB_OTG_BSP_uDelay      0x0800e4a3   0x18  Code  Gb  usb_bsp.o [1]
USB_OTG_CoreInit        0x0800db0d   0xca  Code  Gb  usb_core.o [1]
USB_OTG_CoreInitDev     0x0800dd27  0x1ae  Code  Gb  usb_core.o [1]
USB_OTG_CoreReset       0x0800d953   0x64  Code  Lc  usb_core.o [1]
USB_OTG_DisableGlobalInt
                        0x0800dbf5   0x1e  Code  Gb  usb_core.o [1]
USB_OTG_EP0Activate     0x0800df6b   0x50  Code  Gb  usb_core.o [1]
USB_OTG_EP0StartXfer    0x0800e219  0x12c  Code  Gb  usb_core.o [1]
USB_OTG_EP0_OutStart    0x0800e40d   0x52  Code  Gb  usb_core.o [1]
USB_OTG_EPActivate      0x0800dfbb   0x7a  Code  Gb  usb_core.o [1]
USB_OTG_EPClearStall    0x0800e38d   0x46  Code  Gb  usb_core.o [1]
USB_OTG_EPDeactivate    0x0800e035   0x58  Code  Gb  usb_core.o [1]
USB_OTG_EPSetStall      0x0800e345   0x48  Code  Gb  usb_core.o [1]
USB_OTG_EPStartXfer     0x0800e08d  0x18c  Code  Gb  usb_core.o [1]
USB_OTG_EnableCommonInt
                        0x0800d931   0x22  Code  Lc  usb_core.o [1]
USB_OTG_EnableDevInt    0x0800ded5   0x62  Code  Gb  usb_core.o [1]
USB_OTG_EnableGlobalInt
                        0x0800dbd7   0x1e  Code  Gb  usb_core.o [1]
USB_OTG_FlushRxFifo     0x0800dc5b   0x40  Code  Gb  usb_core.o [1]
USB_OTG_FlushTxFifo     0x0800dc13   0x48  Code  Gb  usb_core.o [1]
USB_OTG_GetDeviceSpeed  0x0800df37   0x34  Code  Gb  usb_core.o [1]
USB_OTG_GetMode         0x0800dce1    0xa  Code  Gb  usb_core.o [1]
USB_OTG_InitDevSpeed    0x0800dd15   0x12  Code  Gb  usb_core.o [1]
USB_OTG_IsDeviceMode    0x0800dceb   0x18  Code  Gb  usb_core.o [1]
USB_OTG_ReadCoreItr     0x0800dd03   0x12  Code  Gb  usb_core.o [1]
USB_OTG_ReadDevAllInEPItr
                        0x0800e3fb   0x12  Code  Gb  usb_core.o [1]
USB_OTG_ReadDevAllOutEp_itr
                        0x0800e3d3   0x12  Code  Gb  usb_core.o [1]
USB_OTG_ReadDevOutEP_itr
                        0x0800e3e5   0x16  Code  Gb  usb_core.o [1]
USB_OTG_ReadPacket      0x0800d9ff   0x2c  Code  Gb  usb_core.o [1]
USB_OTG_SelectCore      0x0800da2b   0xe2  Code  Gb  usb_core.o [1]
USB_OTG_SetCurrentMode  0x0800dca5   0x3c  Code  Gb  usb_core.o [1]
USB_OTG_WritePacket     0x0800d9b7   0x48  Code  Gb  usb_core.o [1]
USB_OTG_dev             0x20001990  0x5f4  Data  Gb  main.o [1]
USB_Rx_Buffer           0x20002a88   0x40  Data  Gb  usbd_cdc_core.o [1]
USB_Tx_State            0x20002b51    0x1  Data  Gb  usbd_cdc_core.o [1]
USR_cb                  0x20000900   0x1c  Data  Gb  usbd_usr.o [1]
USR_desc                0x200008e4   0x1c  Data  Gb  usbd_desc.o [1]
UsageFault_Handler      0x08013f0d    0x2  Code  Gb  stm32f10x_it.o [1]
VCP_Ctrl                0x0800ffa5   0xb4  Code  Lc  usbd_cdc_vcp.o [1]
VCP_DataRx              0x0801010f   0xb6  Code  Lc  usbd_cdc_vcp.o [1]
VCP_DataTx              0x08010059   0xb6  Code  Lc  usbd_cdc_vcp.o [1]
VCP_DeInit              0x0800ffa1    0x4  Code  Lc  usbd_cdc_vcp.o [1]
VCP_Init                0x0800ff9d    0x4  Code  Lc  usbd_cdc_vcp.o [1]
VCP_fops                0x20000930   0x14  Data  Gb  usbd_cdc_vcp.o [1]
ValidateCommandLine     0x0800fe7b   0xe6  Code  Gb  console_tail.o [1]
WWDG_IRQHandler         0x08014701         Code  Wk  startup_stm32f10x_cl.o [1]
WritePage               0x0800e817   0xc6  Code  Gb  main.o [1]
_GenldFull              0x0800cb71  0x266  Code  Lc  xprintffull.o [3]
_GetN                   0x08011ec1   0x22  Code  Lc  xscanffull.o [3]
_GetfldFull             0x0801207d  0x106  Code  Lc  xscanffull.o [3]
_GetfloatFull           0x08012511  0x3cc  Code  Lc  xscanffull.o [3]
_GetintFull             0x08012343  0x1c8  Code  Lc  xscanffull.o [3]
_GetstrFull             0x08012183  0x1ba  Code  Lc  xscanffull.o [3]
_LdtobFull              0x0800c771  0x3fa  Code  Lc  xprintffull.o [3]
_LitobFull              0x0800c65b  0x10e  Code  Lc  xprintffull.o [3]
_LocaleC_isspace        0x08011065   0x16  Code  Gb  base64.o [1]
_PrintfFull             0x0800c151  0x504  Code  Gb  xprintffull.o [3]
_Prout                  0x08014569   0x16  Code  Gb  xprout.o [3]
_PutcharsFull           0x0800cdd7   0x2e  Code  Lc  xprintffull.o [3]
_SNProut                0x0800ceab   0x1a  Code  Gb  xsnprout.o [3]
_SProut                 0x0800d0ff    0xa  Code  Gb  xsprout.o [3]
_SScin                  0x0800ce57   0x1e  Code  Gb  xsscin.o [3]
_ScanfFull              0x08011ee3  0x19a  Code  Gb  xscanffull.o [3]
_Stoflt                 0x08012e61  0x1a8  Code  Gb  xstoflt.o [3]
_Stopfx                 0x08012d2f  0x130  Code  Gb  xstopfx.o [3]
_Stoxflt                0x080131f9  0x1c8  Code  Gb  xstoxflt.o [3]
_UngetChar              0x20000988    0x4  Data  Lc  getchar.o [3]
__aeabi_cdcmpeq         0x080133f5         Code  Gb  DblCmpEq.o [4]
__aeabi_cdcmple         0x0800d0d1         Code  Gb  DblCmpLe.o [4]
__aeabi_cdrcmple        0x0800d109         Code  Gb  DblCmpGe.o [4]
__aeabi_d2f             0x08012c9d         Code  Gb  DblToFlt.o [4]
__aeabi_d2iz            0x0800d245         Code  Gb  DblToI32.o [4]
__aeabi_d2uiz           0x0800d271         Code  Gb  DblToI32.o [4]
__aeabi_dadd            0x0800d849         Code  Gb  DblAdd.o [4]
__aeabi_ddiv            0x0800d5f1         Code  Gb  DblDiv.o [4]
__aeabi_dmul            0x0800d44d         Code  Gb  DblMul.o [4]
__aeabi_dsub            0x0800d2cd         Code  Gb  DblSub.o [4]
__aeabi_errno_addr      0x080128f5    0x6  Code  Gb  errno.o [3]
__aeabi_i2d             0x0800d29d         Code  Gb  I32ToDbl.o [4]
__aeabi_ldiv0           0x0800d845         Code  Gb  I64DivZer.o [5]
__aeabi_memcpy          0x0800d019         Code  Gb  ABImemcpy.o [5]
__aeabi_memcpy4         0x0800d039         Code  Gb  ABImemcpy.o [5]
__aeabi_memcpy8         0x0800d039         Code  Gb  ABImemcpy.o [5]
__aeabi_memset          0x08010f15         Code  Gb  ABImemset.o [5]
__aeabi_ui2d            0x0800d2b1         Code  Gb  I32ToDbl.o [4]
__aeabi_uldivmod        0x0800cf1d         Code  Gb  I64DivMod.o [5]
__cmain                 0x08014529         Code  Gb  cmain.o [5]
__exit                  0x08014555   0x14  Code  Gb  exit.o [6]
__iar_Dnorm             0x0800d08f   0x42  Code  Gb  xdnorm.o [4]
__iar_Dscale            0x0800d139  0x10c  Code  Gb  xdscale.o [4]
__iar_Dtentox           0x0801305b  0x140  Code  Gb  xdtento.o [4]
__iar_Errno             0x20002b44    0x4  Data  Gb  errno.o [3]
__iar_Memchr            0x0800cec5         Code  Gb  memchr.o [5]
__iar_Memset            0x08010f15         Code  Gb  ABImemset.o [5]
__iar_Memset_word       0x08010f1d         Code  Gb  ABImemset.o [5]
__iar_Stold             0x08012c99    0x4  Code  Gb  xstold.o [4]
__iar_Stoldx            0x08012b59  0x132  Code  Gb  xstold.o [4]
__iar_Stoll             0x0801299f    0x4  Code  Gb  xstoll.o [3]
__iar_Stollx            0x08012901   0x9e  Code  Gb  xstoll.o [3]
__iar_Stoul             0x0801119b    0x4  Code  Gb  xstoul.o [3]
__iar_Stoull            0x08012b05    0x4  Code  Gb  xstoull.o [3]
__iar_Stoullx           0x080129a5  0x15a  Code  Gb  xstoull.o [3]
__iar_Stoulx            0x0801107d  0x118  Code  Gb  xstoul.o [3]
__iar_Strchr            0x0800ce41         Code  Gb  strchr.o [5]
__iar_d2uiz             0x0800d27d         Code  Gb  DblToI32.o [4]
__iar_dadd              0x0800d85d         Code  Gb  DblAdd.o [4]
__iar_data_init3        0x0801446d   0x28  Code  Gb  data_init3.o [5]
__iar_dlib_perthread_access
                        0x08012d2d    0x2  Code  Gb  xtls.o [3]
__iar_dsub              0x0800d2e1         Code  Gb  DblSub.o [4]
__iar_dsubStart         0x0800d2f3         Code  Gb  DblSub.o [4]
__iar_packbits_init3    0x080142e9   0xa6  Code  Gb  packbits_init3.o [5]
__iar_program_start     0x080146b1         Code  Gb  cstartup_M.o [5]
__iar_ui2d              0x0800d2b5         Code  Gb  I32ToDbl.o [4]
__iar_zero_init3        0x0800ce1f   0x22  Code  Gb  zero_init3.o [5]
__low_level_init        0x0801453f    0x4  Code  Gb  low_level_init.o [3]
__read                  0x080101f5   0xe4  Code  Gb  usbd_cdc_vcp.o [1]
__vector_table          0x0800c000         Data  Gb  startup_stm32f10x_cl.o [1]
__write                 0x080101c5   0x30  Code  Gb  usbd_cdc_vcp.o [1]
__writeCmdLineRespPacket
                        0x08010317   0x2e  Code  Gb  usbd_cdc_vcp.o [1]
_call_main              0x08014535         Code  Gb  cmain.o [5]
_exit                   0x08014549         Code  Gb  cexit.o [5]
_main                   0x0801453b         Code  Gb  cmain.o [5]
assert_loop             0x2000098e    0x1  Data  Lc  main.o [1]
b64_pton                0x0800fcbd  0x19a  Code  Gb  base64.o [1]
cdcCmd                  0x2000097c    0x4  Data  Lc  usbd_cdc_core.o [1]
cdcLen                  0x20002b24    0x4  Data  Lc  usbd_cdc_core.o [1]
digits                  0x080111a0   0x28  Data  Lc  xstoul.o [3]
digits                  0x08012b08   0x28  Data  Lc  xstoull.o [3]
div                     0x0800d837    0xe  Code  Gb  div.o [3]
dmul                    0x08013009   0x52  Code  Lc  xdtento.o [4]
doPackets               0x0800ec3b  0x16a  Code  Gb  main.o [1]
eeOSTime                0x20002ad8    0x8  Data  Gb  i2c_ee.o [1]
exit                    0x08014543    0x4  Code  Gb  exit.o [3]
flags                   0x20002af8    0x4  Data  Gb  main.o [1]
getchar                 0x08010ee1   0x2e  Code  Gb  getchar.o [3]
hard_fault_handler_c    0x08013e53   0xa2  Code  Gb  stm32f10x_it.o [1]
hasMainFirmware         0x20002b4e    0x1  Data  Gb  main.o [1]
header                  0x20002afc    0x4  Data  Lc  main.o [1]
isspace                 0x080103f9    0xc  Code  Gb  base64.o [1]
linecoding              0x20000968    0x8  Data  Gb  usbd_cdc_vcp.o [1]
main                    0x0800f01b  0x12c  Code  Gb  main.o [1]
memchr                  0x0800cec5         Code  Gb  memchr.o [5]
memcmp                  0x08010f7d         Code  Gb  memcmp.o [5]
memcpy                  0x0800f377   0x16  Code  Gb  usbd_cdc_vcp.o [1]
memset                  0x0800fca5   0x16  Code  Gb  main.o [1]
ndigs                   0x080111c8   0x28  Data  Lc  xstoul.o [3]
ndigs                   0x08012b30   0x28  Data  Lc  xstoull.o [3]
onLineIn                0x0800edb1  0x1bc  Code  Lc  main.o [1]
on_usb_power            0x2000098f    0x1  Data  Gb  stm32f10x_it.o [1]
packet                  0x20002b4a    0x2  Data  Lc  main.o [1]
page                    0x20000000  0x808  Data  Lc  main.o [1]
power_off               0x0800ef6d   0x44  Code  Lc  main.o [1]
pows                    0x080131b0   0x48  Data  Lc  xdtento.o [4]
printf                  0x080103d5   0x24  Code  Gb  printf.o [3]
putchar                 0x08014445   0x28  Code  Gb  putchar.o [3]
result                  0x20002b00    0x4  Data  Gb  main.o [1]
snprintf                0x080142a5   0x44  Code  Gb  snprintf.o [3]
sprintf                 0x08010fe1   0x34  Code  Gb  sprintf.o [3]
sscanf                  0x08011015   0x24  Code  Gb  sscanf.o [3]
strchr                  0x0800ce41         Code  Gb  strchr.o [5]
strcpy                  0x08010391         Code  Gb  strcpy.o [5]
strlen                  0x0800ce75         Code  Gb  strlen.o [5]
strrev                  0x0800ff85   0x18  Code  Gb  console_tail.o [1]
strtoul                 0x08010405    0x4  Code  Gb  strtoul.o [3]
trace_format_buf        0x20002684  0x200  Data  Gb  usbd_cdc_vcp.o [1]
usbd_cdc_AltSet         0x20002b14    0x4  Data  Lc  usbd_cdc_core.o [1]
usbd_cdc_CfgDesc        0x20000808   0x44  Data  Gb  usbd_cdc_core.o [1]
usbd_cdc_DataIn         0x08013c7f   0x7c  Code  Lc  usbd_cdc_core.o [1]
usbd_cdc_DataOut        0x08013cfb   0x30  Code  Lc  usbd_cdc_core.o [1]
usbd_cdc_DeInit         0x08013b5d   0x28  Code  Lc  usbd_cdc_core.o [1]
usbd_cdc_EP0_RxReady    0x08013c59   0x26  Code  Lc  usbd_cdc_core.o [1]
usbd_cdc_Init           0x08013b11   0x4c  Code  Lc  usbd_cdc_core.o [1]
usbd_cdc_SOF            0x08013d2b   0x22  Code  Lc  usbd_cdc_core.o [1]
usbd_cdc_Setup          0x08013b85   0xd4  Code  Lc  usbd_cdc_core.o [1]
val                     0x20002b0c    0x4  Data  Gb  main.o [1]
version                 0x20000970    0x4  Data  Gb  main.o [1]
vsprintf                0x08011039   0x2c  Code  Gb  vsprintf.o [3]
write_header            0x080102d9   0x3e  Code  Lc  usbd_cdc_vcp.o [1]


[1] = C:\CAST\frimware2.7_phase\firmware\Bootloader\IAR\Release-MainMemory-Beacon\Obj
[2] = command line
[3] = dl7M_tln.a
[4] = m7M_tl.a
[5] = rt7M_tl.a
[6] = shb_l.a

  34 151 bytes of readonly  code memory
   1 015 bytes of readonly  data memory
  15 187 bytes of readwrite data memory

Errors: none
Warnings: none
